; ModuleID = 'source-C-CXX/44/2745.c'
source_filename = "source-C-CXX/44/2745.c"
target datalayout = "e-m:e-p270:32:32-p271:32:32-p272:64:64-i64:64-f80:128-n8:16:32:64-S128"
target triple = "x86_64-pc-linux-gnu"

@.str = private unnamed_addr constant [5 x i8] c"%s%s\00", align 1
@.str.1 = private unnamed_addr constant [3 x i8] c"%d\00", align 1

; Function Attrs: nofree nounwind sspstrong uwtable
define dso_local i32 @main() local_unnamed_addr #0 {
  %1 = alloca [1000 x i8], align 16
  %2 = alloca [1000 x i8], align 16
  %3 = getelementptr inbounds [1000 x i8], [1000 x i8]* %1, i64 0, i64 0
  call void @llvm.lifetime.start.p0i8(i64 1000, i8* nonnull %3) #4
  %4 = getelementptr inbounds [1000 x i8], [1000 x i8]* %2, i64 0, i64 0
  call void @llvm.lifetime.start.p0i8(i64 1000, i8* nonnull %4) #4
  %5 = call i32 (i8*, ...) @__isoc99_scanf(i8* getelementptr inbounds ([5 x i8], [5 x i8]* @.str, i64 0, i64 0), i8* nonnull %3, i8* nonnull %4)
  %6 = call i64 @strlen(i8* noundef nonnull %3) #5
  %7 = trunc i64 %6 to i32
  %8 = call i64 @strlen(i8* noundef nonnull %4) #5
  %9 = trunc i64 %8 to i32
  %10 = add nsw i32 %7, -1
  %11 = icmp slt i32 %9, 1
  %12 = icmp eq i32 %10, 0
  %13 = select i1 %11, i1 true, i1 %12
  br i1 %13, label %34, label %14

14:                                               ; preds = %0
  %15 = shl i64 %8, 32
  %16 = ashr exact i64 %15, 32
  br label %17

17:                                               ; preds = %14, %17
  %18 = phi i64 [ 0, %14 ], [ %28, %17 ]
  %19 = phi i32 [ 0, %14 ], [ %27, %17 ]
  %20 = getelementptr inbounds [1000 x i8], [1000 x i8]* %2, i64 0, i64 %18
  %21 = load i8, i8* %20, align 1, !tbaa !5
  %22 = sext i32 %19 to i64
  %23 = getelementptr inbounds [1000 x i8], [1000 x i8]* %1, i64 0, i64 %22
  %24 = load i8, i8* %23, align 1, !tbaa !5
  %25 = icmp eq i8 %21, %24
  %26 = add nsw i32 %19, 1
  %27 = select i1 %25, i32 %26, i32 0
  %28 = add nuw nsw i64 %18, 1
  %29 = icmp sge i64 %28, %16
  %30 = icmp eq i32 %27, %10
  %31 = select i1 %29, i1 true, i1 %30
  br i1 %31, label %32, label %17, !llvm.loop !8

32:                                               ; preds = %17
  %33 = trunc i64 %28 to i32
  br label %34

34:                                               ; preds = %32, %0
  %35 = phi i32 [ 0, %0 ], [ %27, %32 ]
  %36 = phi i32 [ 0, %0 ], [ %33, %32 ]
  %37 = sub nsw i32 %36, %35
  %38 = call i32 (i8*, ...) @printf(i8* nonnull dereferenceable(1) getelementptr inbounds ([3 x i8], [3 x i8]* @.str.1, i64 0, i64 0), i32 %37)
  call void @llvm.lifetime.end.p0i8(i64 1000, i8* nonnull %4) #4
  call void @llvm.lifetime.end.p0i8(i64 1000, i8* nonnull %3) #4
  ret i32 0
}

; Function Attrs: argmemonly mustprogress nofree nosync nounwind willreturn
declare void @llvm.lifetime.start.p0i8(i64 immarg, i8* nocapture) #1

; Function Attrs: nofree nounwind
declare noundef i32 @__isoc99_scanf(i8* nocapture noundef readonly, ...) local_unnamed_addr #2

; Function Attrs: argmemonly mustprogress nofree nounwind readonly willreturn
declare i64 @strlen(i8* nocapture) local_unnamed_addr #3

; Function Attrs: nofree nounwind
declare noundef i32 @printf(i8* nocapture noundef readonly, ...) local_unnamed_addr #2

; Function Attrs: argmemonly mustprogress nofree nosync nounwind willreturn
declare void @llvm.lifetime.end.p0i8(i64 immarg, i8* nocapture) #1


!llvm.module.flags = !{!0, !1, !2, !3}
!llvm.ident = !{!4}

!0 = !{i32 1, !"wchar_size", i32 4}
!1 = !{i32 7, !"PIC Level", i32 2}
!2 = !{i32 7, !"PIE Level", i32 2}
!3 = !{i32 7, !"uwtable", i32 1}
!4 = !{!"clang version 13.0.0"}
!5 = !{!6, !6, i64 0}
!6 = !{!"omnipotent char", !7, i64 0}
!7 = !{!"Simple C/C++ TBAA"}
!8 = distinct !{!8, !9}
!9 = !{!"llvm.loop.mustprogress"}
